target datalayout = "e-m:e-p270:32:32-p271:32:32-p272:64:64-i64:64-i128:128-f80:128-n8:16:32:64-S128"
target triple = "x86_64-pc-linux-gnu"

%"class.llvm::MCInst" = type { i32, i32, %"class.llvm::SMLoc", %"class.llvm::SmallVector" }
%"class.llvm::SMLoc" = type { ptr }
%"class.llvm::SmallVector" = type { %"class.llvm::SmallVectorImpl", %"struct.llvm::SmallVectorStorage" }
%"class.llvm::SmallVectorImpl" = type { %"class.llvm::SmallVectorTemplateBase" }
%"class.llvm::SmallVectorTemplateBase" = type { %"class.llvm::SmallVectorTemplateCommon" }
%"class.llvm::SmallVectorTemplateCommon" = type { %"class.llvm::SmallVectorBase" }
%"class.llvm::SmallVectorBase" = type { ptr, i32, i32 }
%"struct.llvm::SmallVectorStorage" = type { [96 x i8] }
%"class.llvm::MCRegister" = type { i32 }
%"class.llvm::MCOperand" = type { i8, %union.anon.14 }
%union.anon.14 = type { i64 }

; Function Attrs: mustprogress nounwind uwtable
define linkonce_odr hidden noundef ptr @_ZNK4llvm25SmallVectorTemplateCommonINS_9MCOperandEvE5beginEv(ptr noundef nonnull align 8 dereferenceable(16) %0) #0 comdat align 2 {
  %2 = alloca ptr, align 8
  store ptr %0, ptr %2, align 8
  %3 = load ptr, ptr %2, align 8
  %4 = getelementptr inbounds nuw %"class.llvm::SmallVectorBase", ptr %3, i32 0, i32 0
  %5 = load ptr, ptr %4, align 8
  ret ptr %5
}

; Function Attrs: mustprogress nounwind uwtable
define linkonce_odr hidden noundef nonnull align 8 dereferenceable(16) ptr @_ZNK4llvm25SmallVectorTemplateCommonINS_9MCOperandEvEixEm(ptr noundef nonnull align 8 dereferenceable(16) %0, i64 noundef %1) #0 comdat align 2 {
  %3 = alloca ptr, align 8
  %4 = alloca i64, align 8
  store ptr %0, ptr %3, align 8
  store i64 %1, ptr %4, align 8
  %5 = load ptr, ptr %3, align 8
  %6 = call noundef ptr @_ZNK4llvm25SmallVectorTemplateCommonINS_9MCOperandEvE5beginEv(ptr noundef nonnull align 8 dereferenceable(16) %5)
  %7 = load i64, ptr %4, align 8
  %8 = getelementptr inbounds %"class.llvm::MCOperand", ptr %6, i64 %7
  ret ptr %8
}

; Function Attrs: mustprogress nounwind uwtable
define linkonce_odr hidden void @_ZN4llvm10MCRegisterC2Ej(ptr noundef nonnull align 4 dereferenceable(4) %0, i32 noundef %1) unnamed_addr #0 comdat align 2 {
  %3 = alloca ptr, align 8
  %4 = alloca i32, align 4
  store ptr %0, ptr %3, align 8
  store i32 %1, ptr %4, align 4
  %5 = load ptr, ptr %3, align 8
  %6 = getelementptr inbounds nuw %"class.llvm::MCRegister", ptr %5, i32 0, i32 0
  %7 = load i32, ptr %4, align 4
  store i32 %7, ptr %6, align 4
  ret void
}

; Function Attrs: mustprogress nounwind uwtable
define linkonce_odr hidden noundef i32 @_ZNK4llvm10MCRegistercvjEv(ptr noundef nonnull align 4 dereferenceable(4) %0) #0 comdat align 2 {
  %2 = alloca ptr, align 8
  store ptr %0, ptr %2, align 8
  %3 = load ptr, ptr %2, align 8
  %4 = getelementptr inbounds nuw %"class.llvm::MCRegister", ptr %3, i32 0, i32 0
  %5 = load i32, ptr %4, align 4
  ret i32 %5
}

; Function Attrs: mustprogress nounwind uwtable
define linkonce_odr hidden i32 @_ZNK4llvm9MCOperand6getRegEv(ptr noundef nonnull align 8 dereferenceable(16) %0) #0 comdat align 2 {
  %2 = alloca %"class.llvm::MCRegister", align 4
  %3 = alloca ptr, align 8
  store ptr %0, ptr %3, align 8
  %4 = load ptr, ptr %3, align 8
  %5 = getelementptr inbounds nuw %"class.llvm::MCOperand", ptr %4, i32 0, i32 1
  %6 = load i32, ptr %5, align 8
  call void @_ZN4llvm10MCRegisterC2Ej(ptr noundef nonnull align 4 dereferenceable(4) %2, i32 noundef %6)
  %7 = getelementptr inbounds nuw %"class.llvm::MCRegister", ptr %2, i32 0, i32 0
  %8 = load i32, ptr %7, align 4
  ret i32 %8
}

; Function Attrs: mustprogress nounwind uwtable
define linkonce_odr hidden noundef nonnull align 8 dereferenceable(16) ptr @_ZNK4llvm6MCInst10getOperandEj(ptr noundef nonnull align 8 dereferenceable(128) %0, i32 noundef %1) #0 comdat align 2 {
  %3 = alloca ptr, align 8
  %4 = alloca i32, align 4
  store ptr %0, ptr %3, align 8
  store i32 %1, ptr %4, align 4
  %5 = load ptr, ptr %3, align 8
  %6 = getelementptr inbounds nuw %"class.llvm::MCInst", ptr %5, i32 0, i32 3
  %7 = load i32, ptr %4, align 4
  %8 = zext i32 %7 to i64
  %9 = call noundef nonnull align 8 dereferenceable(16) ptr @_ZNK4llvm25SmallVectorTemplateCommonINS_9MCOperandEvEixEm(ptr noundef nonnull align 8 dereferenceable(16) %6, i64 noundef %8)
  ret ptr %9
}

; Function Attrs: mustprogress nounwind uwtable
define dso_local void @_ZN4llvm18AArch64InstPrinter14printGPR64as32EPKNS_6MCInstEjRKNS_15MCSubtargetInfoERNS_11raw_ostreamE(ptr noundef nonnull align 8 dereferenceable(58) %0, ptr noundef %1, i32 noundef %2, ptr noundef nonnull align 8 dereferenceable(288) %3, ptr noundef nonnull align 8 dereferenceable(48) %4) #0 align 2 {
  %6 = alloca ptr, align 8
  %7 = alloca ptr, align 8
  %8 = alloca i32, align 4
  %9 = alloca ptr, align 8
  %10 = alloca ptr, align 8
  %11 = alloca i32, align 4
  %12 = alloca %"class.llvm::MCRegister", align 4
  %13 = alloca %"class.llvm::MCRegister", align 4
  store ptr %0, ptr %6, align 8
  store ptr %1, ptr %7, align 8
  store i32 %2, ptr %8, align 4
  store ptr %3, ptr %9, align 8
  store ptr %4, ptr %10, align 8
  %14 = load ptr, ptr %6, align 8
  %15 = load ptr, ptr %7, align 8
  %16 = load i32, ptr %8, align 4
  %17 = call noundef nonnull align 8 dereferenceable(16) ptr @_ZNK4llvm6MCInst10getOperandEj(ptr noundef nonnull align 8 dereferenceable(128) %15, i32 noundef %16)
  %18 = call i32 @_ZNK4llvm9MCOperand6getRegEv(ptr noundef nonnull align 8 dereferenceable(16) %17)
  %19 = getelementptr inbounds nuw %"class.llvm::MCRegister", ptr %12, i32 0, i32 0
  store i32 %18, ptr %19, align 4
  %20 = call noundef i32 @_ZNK4llvm10MCRegistercvjEv(ptr noundef nonnull align 4 dereferenceable(4) %12)
  store i32 %20, ptr %11, align 4
  %21 = load ptr, ptr %10, align 8
  %22 = load i32, ptr %11, align 4
  %23 = call noundef i32 @_ZN4llvmL15getWRegFromXRegEj(i32 noundef %22)
  call void @_ZN4llvm10MCRegisterC2Ej(ptr noundef nonnull align 4 dereferenceable(4) %13, i32 noundef %23)
  %24 = getelementptr inbounds nuw %"class.llvm::MCRegister", ptr %13, i32 0, i32 0
  %25 = load i32, ptr %24, align 4
  %26 = load ptr, ptr %14, align 8
  %27 = getelementptr inbounds ptr, ptr %26, i64 5
  %28 = load ptr, ptr %27, align 8
  call void %28(ptr noundef nonnull align 8 dereferenceable(58) %14, ptr noundef nonnull align 8 dereferenceable(48) %21, i32 %25)
  ret void
}